target datalayout = "e-m:e-p270:32:32-p271:32:32-p272:64:64-i64:64-i128:128-f80:128-n8:16:32:64-S128"
target triple = "x86_64-pc-linux-gnu"

%struct.FLAC__BitReader = type { ptr, i32, i32, i32, i32, i32, i32, i32, i32, i32, i32, i32, ptr, ptr }

; Function Attrs: nounwind sspstrong uwtable
define hidden i32 @FLAC__bitreader_clear(ptr noundef %0) #0 {
  %2 = alloca ptr, align 8
  store ptr %0, ptr %2, align 8, !tbaa !3
  %3 = load ptr, ptr %2, align 8, !tbaa !3
  %4 = getelementptr inbounds nuw %struct.FLAC__BitReader, ptr %3, i32 0, i32 3
  store i32 0, ptr %4, align 8, !tbaa !13
  %5 = load ptr, ptr %2, align 8, !tbaa !3
  %6 = getelementptr inbounds nuw %struct.FLAC__BitReader, ptr %5, i32 0, i32 2
  store i32 0, ptr %6, align 4, !tbaa !14
  %7 = load ptr, ptr %2, align 8, !tbaa !3
  %8 = getelementptr inbounds nuw %struct.FLAC__BitReader, ptr %7, i32 0, i32 5
  store i32 0, ptr %8, align 8, !tbaa !15
  %9 = load ptr, ptr %2, align 8, !tbaa !3
  %10 = getelementptr inbounds nuw %struct.FLAC__BitReader, ptr %9, i32 0, i32 4
  store i32 0, ptr %10, align 4, !tbaa !16
  %11 = load ptr, ptr %2, align 8, !tbaa !3
  %12 = getelementptr inbounds nuw %struct.FLAC__BitReader, ptr %11, i32 0, i32 9
  store i32 0, ptr %12, align 8, !tbaa !19
  %13 = load ptr, ptr %2, align 8, !tbaa !3
  %14 = getelementptr inbounds nuw %struct.FLAC__BitReader, ptr %13, i32 0, i32 10
  store i32 -1, ptr %14, align 4, !tbaa !20
  %15 = load ptr, ptr %2, align 8, !tbaa !3
  %16 = getelementptr inbounds nuw %struct.FLAC__BitReader, ptr %15, i32 0, i32 11
  store i32 -1, ptr %16, align 8, !tbaa !21
  ret i32 1
}